; ModuleID = '21/1434.c'
source_filename = "21/1434.c"
target datalayout = "e-m:e-p270:32:32-p271:32:32-p272:64:64-i64:64-f80:128-n8:16:32:64-S128"
target triple = "x86_64-pc-linux-gnu"

@.str = private unnamed_addr constant [3 x i8] c"%d\00", align 1
@.str.1 = private unnamed_addr constant [4 x i8] c"%d,\00", align 1

; Function Attrs: noinline nounwind uwtable
define dso_local i32 @main() #0 {
  %1 = alloca i32, align 4
  %2 = alloca i32, align 4
  %3 = alloca i32, align 4
  %4 = alloca i32, align 4
  %5 = alloca i32, align 4
  %6 = alloca [300 x i32], align 16
  %7 = alloca [300 x i32], align 16
  %8 = alloca i32, align 4
  %9 = alloca double, align 8
  %10 = alloca [300 x double], align 16
  %11 = alloca double, align 8
  %12 = alloca double, align 8
  store i32 0, i32* %1, align 4
  store i32 0, i32* %8, align 4
  store double 0.000000e+00, double* %11, align 8
  store double 0.000000e+00, double* %12, align 8
  %13 = call i32 (i8*, ...) @__isoc99_scanf(i8* getelementptr inbounds ([3 x i8], [3 x i8]* @.str, i64 0, i64 0), i32* %2)
  store i32 0, i32* %3, align 4
  br label %14

14:                                               ; preds = %30, %0
  %15 = load i32, i32* %3, align 4
  %16 = load i32, i32* %2, align 4
  %17 = icmp slt i32 %15, %16
  br i1 %17, label %18, label %33

18:                                               ; preds = %14
  %19 = load i32, i32* %3, align 4
  %20 = sext i32 %19 to i64
  %21 = getelementptr inbounds [300 x i32], [300 x i32]* %6, i64 0, i64 %20
  %22 = call i32 (i8*, ...) @__isoc99_scanf(i8* getelementptr inbounds ([3 x i8], [3 x i8]* @.str, i64 0, i64 0), i32* %21)
  %23 = load i32, i32* %3, align 4
  %24 = sext i32 %23 to i64
  %25 = getelementptr inbounds [300 x i32], [300 x i32]* %6, i64 0, i64 %24
  %26 = load i32, i32* %25, align 4
  %27 = sitofp i32 %26 to double
  %28 = load double, double* %11, align 8
  %29 = fadd double %28, %27
  store double %29, double* %11, align 8
  br label %30

30:                                               ; preds = %18
  %31 = load i32, i32* %3, align 4
  %32 = add nsw i32 %31, 1
  store i32 %32, i32* %3, align 4
  br label %14

33:                                               ; preds = %14
  %34 = load double, double* %11, align 8
  %35 = load i32, i32* %2, align 4
  %36 = sitofp i32 %35 to double
  %37 = fdiv double %34, %36
  store double %37, double* %9, align 8
  store i32 0, i32* %3, align 4
  br label %38

38:                                               ; preds = %81, %33
  %39 = load i32, i32* %3, align 4
  %40 = load i32, i32* %2, align 4
  %41 = icmp slt i32 %39, %40
  br i1 %41, label %42, label %84

42:                                               ; preds = %38
  %43 = load i32, i32* %3, align 4
  %44 = sext i32 %43 to i64
  %45 = getelementptr inbounds [300 x i32], [300 x i32]* %6, i64 0, i64 %44
  %46 = load i32, i32* %45, align 4
  %47 = sitofp i32 %46 to double
  %48 = load double, double* %9, align 8
  %49 = fcmp ogt double %47, %48
  br i1 %49, label %50, label %61

50:                                               ; preds = %42
  %51 = load i32, i32* %3, align 4
  %52 = sext i32 %51 to i64
  %53 = getelementptr inbounds [300 x i32], [300 x i32]* %6, i64 0, i64 %52
  %54 = load i32, i32* %53, align 4
  %55 = sitofp i32 %54 to double
  %56 = load double, double* %9, align 8
  %57 = fsub double %55, %56
  %58 = load i32, i32* %3, align 4
  %59 = sext i32 %58 to i64
  %60 = getelementptr inbounds [300 x double], [300 x double]* %10, i64 0, i64 %59
  store double %57, double* %60, align 8
  br label %61

61:                                               ; preds = %50, %42
  %62 = load i32, i32* %3, align 4
  %63 = sext i32 %62 to i64
  %64 = getelementptr inbounds [300 x i32], [300 x i32]* %6, i64 0, i64 %63
  %65 = load i32, i32* %64, align 4
  %66 = sitofp i32 %65 to double
  %67 = load double, double* %9, align 8
  %68 = fcmp olt double %66, %67
  br i1 %68, label %69, label %80

69:                                               ; preds = %61
  %70 = load double, double* %9, align 8
  %71 = load i32, i32* %3, align 4
  %72 = sext i32 %71 to i64
  %73 = getelementptr inbounds [300 x i32], [300 x i32]* %6, i64 0, i64 %72
  %74 = load i32, i32* %73, align 4
  %75 = sitofp i32 %74 to double
  %76 = fsub double %70, %75
  %77 = load i32, i32* %3, align 4
  %78 = sext i32 %77 to i64
  %79 = getelementptr inbounds [300 x double], [300 x double]* %10, i64 0, i64 %78
  store double %76, double* %79, align 8
  br label %80

80:                                               ; preds = %69, %61
  br label %81

81:                                               ; preds = %80
  %82 = load i32, i32* %3, align 4
  %83 = add nsw i32 %82, 1
  store i32 %83, i32* %3, align 4
  br label %38

84:                                               ; preds = %38
  store i32 0, i32* %3, align 4
  br label %85

85:                                               ; preds = %102, %84
  %86 = load i32, i32* %3, align 4
  %87 = load i32, i32* %2, align 4
  %88 = icmp slt i32 %86, %87
  br i1 %88, label %89, label %105

89:                                               ; preds = %85
  %90 = load i32, i32* %3, align 4
  %91 = sext i32 %90 to i64
  %92 = getelementptr inbounds [300 x double], [300 x double]* %10, i64 0, i64 %91
  %93 = load double, double* %92, align 8
  %94 = load double, double* %12, align 8
  %95 = fcmp ogt double %93, %94
  br i1 %95, label %96, label %101

96:                                               ; preds = %89
  %97 = load i32, i32* %3, align 4
  %98 = sext i32 %97 to i64
  %99 = getelementptr inbounds [300 x double], [300 x double]* %10, i64 0, i64 %98
  %100 = load double, double* %99, align 8
  store double %100, double* %12, align 8
  br label %101

101:                                              ; preds = %96, %89
  br label %102

102:                                              ; preds = %101
  %103 = load i32, i32* %3, align 4
  %104 = add nsw i32 %103, 1
  store i32 %104, i32* %3, align 4
  br label %85

105:                                              ; preds = %85
  store i32 0, i32* %3, align 4
  br label %106

106:                                              ; preds = %128, %105
  %107 = load i32, i32* %3, align 4
  %108 = load i32, i32* %2, align 4
  %109 = icmp slt i32 %107, %108
  br i1 %109, label %110, label %131

110:                                              ; preds = %106
  %111 = load i32, i32* %3, align 4
  %112 = sext i32 %111 to i64
  %113 = getelementptr inbounds [300 x double], [300 x double]* %10, i64 0, i64 %112
  %114 = load double, double* %113, align 8
  %115 = load double, double* %12, align 8
  %116 = fcmp oeq double %114, %115
  br i1 %116, label %117, label %127

117:                                              ; preds = %110
  %118 = load i32, i32* %3, align 4
  %119 = sext i32 %118 to i64
  %120 = getelementptr inbounds [300 x i32], [300 x i32]* %6, i64 0, i64 %119
  %121 = load i32, i32* %120, align 4
  %122 = load i32, i32* %8, align 4
  %123 = sext i32 %122 to i64
  %124 = getelementptr inbounds [300 x i32], [300 x i32]* %7, i64 0, i64 %123
  store i32 %121, i32* %124, align 4
  %125 = load i32, i32* %8, align 4
  %126 = add nsw i32 %125, 1
  store i32 %126, i32* %8, align 4
  br label %127

127:                                              ; preds = %117, %110
  br label %128

128:                                              ; preds = %127
  %129 = load i32, i32* %3, align 4
  %130 = add nsw i32 %129, 1
  store i32 %130, i32* %3, align 4
  br label %106

131:                                              ; preds = %106
  store i32 0, i32* %3, align 4
  br label %132

132:                                              ; preds = %177, %131
  %133 = load i32, i32* %3, align 4
  %134 = load i32, i32* %8, align 4
  %135 = icmp slt i32 %133, %134
  br i1 %135, label %136, label %180

136:                                              ; preds = %132
  %137 = load i32, i32* %8, align 4
  %138 = sub nsw i32 %137, 1
  store i32 %138, i32* %5, align 4
  br label %139

139:                                              ; preds = %173, %136
  %140 = load i32, i32* %5, align 4
  %141 = load i32, i32* %3, align 4
  %142 = icmp sgt i32 %140, %141
  br i1 %142, label %143, label %176

143:                                              ; preds = %139
  %144 = load i32, i32* %5, align 4
  %145 = sext i32 %144 to i64
  %146 = getelementptr inbounds [300 x i32], [300 x i32]* %7, i64 0, i64 %145
  %147 = load i32, i32* %146, align 4
  %148 = load i32, i32* %5, align 4
  %149 = sub nsw i32 %148, 1
  %150 = sext i32 %149 to i64
  %151 = getelementptr inbounds [300 x i32], [300 x i32]* %7, i64 0, i64 %150
  %152 = load i32, i32* %151, align 4
  %153 = icmp slt i32 %147, %152
  br i1 %153, label %154, label %172

154:                                              ; preds = %143
  %155 = load i32, i32* %5, align 4
  %156 = sext i32 %155 to i64
  %157 = getelementptr inbounds [300 x i32], [300 x i32]* %7, i64 0, i64 %156
  %158 = load i32, i32* %157, align 4
  store i32 %158, i32* %4, align 4
  %159 = load i32, i32* %5, align 4
  %160 = sub nsw i32 %159, 1
  %161 = sext i32 %160 to i64
  %162 = getelementptr inbounds [300 x i32], [300 x i32]* %7, i64 0, i64 %161
  %163 = load i32, i32* %162, align 4
  %164 = load i32, i32* %5, align 4
  %165 = sext i32 %164 to i64
  %166 = getelementptr inbounds [300 x i32], [300 x i32]* %7, i64 0, i64 %165
  store i32 %163, i32* %166, align 4
  %167 = load i32, i32* %4, align 4
  %168 = load i32, i32* %5, align 4
  %169 = sub nsw i32 %168, 1
  %170 = sext i32 %169 to i64
  %171 = getelementptr inbounds [300 x i32], [300 x i32]* %7, i64 0, i64 %170
  store i32 %167, i32* %171, align 4
  br label %172

172:                                              ; preds = %154, %143
  br label %173

173:                                              ; preds = %172
  %174 = load i32, i32* %5, align 4
  %175 = add nsw i32 %174, -1
  store i32 %175, i32* %5, align 4
  br label %139

176:                                              ; preds = %139
  br label %177

177:                                              ; preds = %176
  %178 = load i32, i32* %3, align 4
  %179 = add nsw i32 %178, 1
  store i32 %179, i32* %3, align 4
  br label %132

180:                                              ; preds = %132
  store i32 0, i32* %3, align 4
  br label %181

181:                                              ; preds = %192, %180
  %182 = load i32, i32* %3, align 4
  %183 = load i32, i32* %8, align 4
  %184 = sub nsw i32 %183, 1
  %185 = icmp slt i32 %182, %184
  br i1 %185, label %186, label %195

186:                                              ; preds = %181
  %187 = load i32, i32* %3, align 4
  %188 = sext i32 %187 to i64
  %189 = getelementptr inbounds [300 x i32], [300 x i32]* %7, i64 0, i64 %188
  %190 = load i32, i32* %189, align 4
  %191 = call i32 (i8*, ...) @printf(i8* getelementptr inbounds ([4 x i8], [4 x i8]* @.str.1, i64 0, i64 0), i32 %190)
  br label %192

192:                                              ; preds = %186
  %193 = load i32, i32* %3, align 4
  %194 = add nsw i32 %193, 1
  store i32 %194, i32* %3, align 4
  br label %181

195:                                              ; preds = %181
  %196 = load i32, i32* %8, align 4
  %197 = sub nsw i32 %196, 1
  %198 = sext i32 %197 to i64
  %199 = getelementptr inbounds [300 x i32], [300 x i32]* %7, i64 0, i64 %198
  %200 = load i32, i32* %199, align 4
  %201 = call i32 (i8*, ...) @printf(i8* getelementptr inbounds ([3 x i8], [3 x i8]* @.str, i64 0, i64 0), i32 %200)
  ret i32 0
}

declare dso_local i32 @__isoc99_scanf(i8*, ...) #1

declare dso_local i32 @printf(i8*, ...) #1


!llvm.module.flags = !{!0}
!llvm.ident = !{!1}

!0 = !{i32 1, !"wchar_size", i32 4}
!1 = !{!"clang version 10.0.0-4ubuntu1 "}
